target datalayout = "e-m:e-p270:32:32-p271:32:32-p272:64:64-i64:64-i128:128-f80:128-n8:16:32:64-S128"
target triple = "x86_64-unknown-linux-gnu"

%class.btSimpleDynamicsWorld = type <{ %class.btDynamicsWorld, ptr, i8, [3 x i8], %class.btVector3, [4 x i8] }>
%class.btDynamicsWorld = type { %class.btCollisionWorld.base, ptr, ptr, ptr, %struct.btContactSolverInfo }
%class.btCollisionWorld.base = type <{ ptr, %class.btAlignedObjectArray, ptr, %struct.btDispatcherInfo, ptr, ptr, i8 }>
%class.btAlignedObjectArray = type <{ %class.btAlignedAllocator, [3 x i8], i32, i32, [4 x i8], ptr, i8, [7 x i8] }>
%class.btAlignedAllocator = type { i8 }
%struct.btDispatcherInfo = type <{ float, i32, i32, float, i8, [7 x i8], ptr, i8, i8, i8, i8, float, i8, [3 x i8], float, i8, [7 x i8] }>
%struct.btContactSolverInfo = type { %struct.btContactSolverInfoData }
%struct.btContactSolverInfoData = type { float, float, float, float, float, i32, float, float, float, float, float, float, float, float, float, float, i32, float, float, float, float, float, i32, i32, i32, float, float, float, float, i8, i8, i32, i32 }
%class.btVector3 = type { [4 x float] }

; Function Attrs: mustprogress uwtable
define dso_local void @_ZN21btSimpleDynamicsWorld19setConstraintSolverEP18btConstraintSolver(ptr noundef nonnull align 8 dereferenceable(308) %this, ptr noundef %solver) unnamed_addr #2 align 2 {
entry:
  %this.addr = alloca ptr, align 8
  %solver.addr = alloca ptr, align 8
  store ptr %this, ptr %this.addr, align 8
  store ptr %solver, ptr %solver.addr, align 8
  %this1 = load ptr, ptr %this.addr, align 8
  %m_ownsConstraintSolver = getelementptr inbounds %class.btSimpleDynamicsWorld, ptr %this1, i32 0, i32 2
  %0 = load i8, ptr %m_ownsConstraintSolver, align 8
  %tobool = trunc i8 %0 to i1
  br i1 %tobool, label %if.then, label %if.end

if.then:                                          ; preds = %entry
  %m_constraintSolver = getelementptr inbounds %class.btSimpleDynamicsWorld, ptr %this1, i32 0, i32 1
  %1 = load ptr, ptr %m_constraintSolver, align 8
  call void @_Z21btAlignedFreeInternalPv(ptr noundef %1)
  br label %if.end

if.end:                                           ; preds = %if.then, %entry
  %m_ownsConstraintSolver2 = getelementptr inbounds %class.btSimpleDynamicsWorld, ptr %this1, i32 0, i32 2
  store i8 0, ptr %m_ownsConstraintSolver2, align 8
  %2 = load ptr, ptr %solver.addr, align 8
  %m_constraintSolver3 = getelementptr inbounds %class.btSimpleDynamicsWorld, ptr %this1, i32 0, i32 1
  store ptr %2, ptr %m_constraintSolver3, align 8
  ret void
}