; Function Attrs: mustprogress uwtable
define dso_local void @_ZN21btSimpleDynamicsWorld19setConstraintSolverEP18btConstraintSolver(ptr nocapture noundef nonnull align 8 dereferenceable(308) %this, ptr noundef %solver) unnamed_addr #1 align 2 {
entry:
  %m_ownsConstraintSolver = getelementptr inbounds i8, ptr %this, i64 288
  %0 = load i8, ptr %m_ownsConstraintSolver, align 8
  %1 = and i8 %0, 1
  %tobool.not = icmp eq i8 %1, 0
  br i1 %tobool.not, label %if.end, label %if.then

if.then:                                          ; preds = %entry
  %m_constraintSolver = getelementptr inbounds i8, ptr %this, i64 280
  %2 = load ptr, ptr %m_constraintSolver, align 8
  tail call void @_Z21btAlignedFreeInternalPv(ptr noundef %2)
  br label %if.end

if.end:                                           ; preds = %if.then, %entry
  store i8 0, ptr %m_ownsConstraintSolver, align 8
  %m_constraintSolver3 = getelementptr inbounds i8, ptr %this, i64 280
  store ptr %solver, ptr %m_constraintSolver3, align 8
  ret void
}